; Function Attrs: mustprogress nofree nounwind uwtable
define void @_ZNK3gmx19SearchCycleCounting11printCyclesEP8_IO_FILENS_8ArrayRefIKNS_14PairsearchWorkEEE(ptr noundef nonnull readonly align 8 captures(none) dereferenceable(80) %0, ptr noundef captures(none) %1, ptr %2, ptr %3) local_unnamed_addr #0 align 2 {
  %fputc = tail call i32 @fputc(i32 10, ptr %1)
  %5 = getelementptr inbounds nuw i8, ptr %0, i64 8
  %6 = load i32, ptr %5, align 8, !tbaa !4
  %7 = icmp sgt i32 %6, 0
  br i1 %7, label %8, label %_ZNK3gmx13nbnxn_cycle_t14averageMCyclesEv.exit

8:                                                ; preds = %4
  %9 = getelementptr inbounds nuw i8, ptr %0, i64 16
  %10 = load i64, ptr %9, align 8, !tbaa !10
  %11 = uitofp i64 %10 to double
  %12 = fmul double %11, 0x3EB0C6F7A0B5ED8D
  %13 = uitofp nneg i32 %6 to double
  %14 = fdiv double %12, %13
  br label %_ZNK3gmx13nbnxn_cycle_t14averageMCyclesEv.exit

_ZNK3gmx13nbnxn_cycle_t14averageMCyclesEv.exit:   ; preds = %4, %8
  %.0.i = phi double [ %14, %8 ], [ 0.000000e+00, %4 ]
  %15 = getelementptr inbounds nuw i8, ptr %0, i64 32
  %16 = load i32, ptr %15, align 8, !tbaa !4
  %17 = icmp sgt i32 %16, 0
  br i1 %17, label %18, label %_ZNK3gmx13nbnxn_cycle_t14averageMCyclesEv.exit14

18:                                               ; preds = %_ZNK3gmx13nbnxn_cycle_t14averageMCyclesEv.exit
  %19 = getelementptr inbounds nuw i8, ptr %0, i64 40
  %20 = load i64, ptr %19, align 8, !tbaa !10
  %21 = uitofp i64 %20 to double
  %22 = fmul double %21, 0x3EB0C6F7A0B5ED8D
  %23 = uitofp nneg i32 %16 to double
  %24 = fdiv double %22, %23
  br label %_ZNK3gmx13nbnxn_cycle_t14averageMCyclesEv.exit14

_ZNK3gmx13nbnxn_cycle_t14averageMCyclesEv.exit14: ; preds = %_ZNK3gmx13nbnxn_cycle_t14averageMCyclesEv.exit, %18
  %.0.i13 = phi double [ %24, %18 ], [ 0.000000e+00, %_ZNK3gmx13nbnxn_cycle_t14averageMCyclesEv.exit ]
  %25 = tail call i32 (ptr, ptr, ...) @fprintf(ptr noundef %1, ptr noundef nonnull @.str.1, i32 noundef %6, double noundef %.0.i, double noundef %.0.i13) #20
  %26 = ptrtoint ptr %3 to i64
  %27 = ptrtoint ptr %2 to i64
  %28 = sub i64 %26, %27
  %29 = sdiv exact i64 %28, 216
  %30 = icmp ugt i64 %29, 1
  br i1 %30, label %31, label %.loopexit

31:                                               ; preds = %_ZNK3gmx13nbnxn_cycle_t14averageMCyclesEv.exit14
  %32 = getelementptr inbounds nuw i8, ptr %0, i64 56
  %33 = load i32, ptr %32, align 8, !tbaa !4
  %34 = icmp sgt i32 %33, 0
  br i1 %34, label %_ZNK3gmx13nbnxn_cycle_t14averageMCyclesEv.exit16, label %42

_ZNK3gmx13nbnxn_cycle_t14averageMCyclesEv.exit16: ; preds = %31
  %35 = getelementptr inbounds nuw i8, ptr %0, i64 64
  %36 = load i64, ptr %35, align 8, !tbaa !10
  %37 = uitofp i64 %36 to double
  %38 = fmul double %37, 0x3EB0C6F7A0B5ED8D
  %39 = uitofp nneg i32 %33 to double
  %40 = fdiv double %38, %39
  %41 = tail call i32 (ptr, ptr, ...) @fprintf(ptr noundef %1, ptr noundef nonnull @.str.2, double noundef %40) #20
  br label %42

42:                                               ; preds = %_ZNK3gmx13nbnxn_cycle_t14averageMCyclesEv.exit16, %31
  %43 = tail call i64 @fwrite(ptr nonnull @.str.3, i64 6, i64 1, ptr %1)
  %.not23 = icmp eq ptr %2, %3
  br i1 %.not23, label %.loopexit, label %.lr.ph

.lr.ph:                                           ; preds = %42, %_ZNK3gmx13nbnxn_cycle_t14averageMCyclesEv.exit20
  %.sroa.0.024 = phi ptr [ %55, %_ZNK3gmx13nbnxn_cycle_t14averageMCyclesEv.exit20 ], [ %2, %42 ]
  %44 = getelementptr inbounds nuw i8, ptr %.sroa.0.024, i64 128
  %45 = load i32, ptr %44, align 8, !tbaa !4
  %46 = icmp sgt i32 %45, 0
  br i1 %46, label %47, label %_ZNK3gmx13nbnxn_cycle_t14averageMCyclesEv.exit20

47:                                               ; preds = %.lr.ph
  %48 = getelementptr inbounds nuw i8, ptr %.sroa.0.024, i64 136
  %49 = load i64, ptr %48, align 8, !tbaa !10
  %50 = uitofp i64 %49 to double
  %51 = fmul double %50, 0x3EB0C6F7A0B5ED8D
  %52 = uitofp nneg i32 %45 to double
  %53 = fdiv double %51, %52
  br label %_ZNK3gmx13nbnxn_cycle_t14averageMCyclesEv.exit20

_ZNK3gmx13nbnxn_cycle_t14averageMCyclesEv.exit20: ; preds = %.lr.ph, %47
  %.0.i19 = phi double [ %53, %47 ], [ 0.000000e+00, %.lr.ph ]
  %54 = tail call i32 (ptr, ptr, ...) @fprintf(ptr noundef %1, ptr noundef nonnull @.str.4, double noundef %.0.i19) #20
  %55 = getelementptr inbounds nuw i8, ptr %.sroa.0.024, i64 216
  %.not = icmp eq ptr %55, %3
  br i1 %.not, label %.loopexit, label %.lr.ph

.loopexit:                                        ; preds = %_ZNK3gmx13nbnxn_cycle_t14averageMCyclesEv.exit20, %42, %_ZNK3gmx13nbnxn_cycle_t14averageMCyclesEv.exit14
  %fputc12 = tail call i32 @fputc(i32 10, ptr %1)
  ret void
}